target datalayout = "e-m:e-p270:32:32-p271:32:32-p272:64:64-i64:64-i128:128-f80:128-n8:16:32:64-S128"
target triple = "x86_64-pc-linux-gnu"

%union.pthread_mutex_t = type { %struct.__pthread_mutex_s }
%struct.__pthread_mutex_s = type { i32, i32, i32, i32, i32, i16, i16, %struct.__pthread_internal_list }
%struct.__pthread_internal_list = type { ptr, ptr }
%struct.sockaddr_storage = type { i16, [118 x i8], i64 }
%struct.slurmdbd_conf_t = type { ptr, ptr, i16, ptr, ptr, ptr, i16, i16, ptr, i32, ptr, i32, ptr, i16, ptr, i32, i32, i32, i32, i32, i32, i32, ptr, i16, i16, i16 }
%struct.slurmdbd_conn_t = type { ptr, ptr, %union.pthread_mutex_t, ptr, ptr }
%struct.persist_conn_t = type { ptr, i32, i32, i8, ptr, ptr, ptr, i64, i16, i32, i16, i8, i32, i32, ptr, i16, ptr, i64, i32, ptr, %struct.slurm_trigger_callbacks_t, i16 }
%struct.slurm_trigger_callbacks_t = type { ptr, ptr, ptr, ptr, ptr }

@master_thread_id = internal global i64 0, align 8
@slurmdbd_conf = external global ptr, align 8
@.str = private unnamed_addr constant [36 x i8] c"slurm_init_msg_engine_port error %m\00", align 1
@shutdown_time = external global i64, align 8
@.str.1 = private unnamed_addr constant [26 x i8] c"slurm_accept_msg_conn: %m\00", align 1
@.str.2 = private unnamed_addr constant [10 x i8] c"rpc_mgr.c\00", align 1
@__func__.rpc_mgr = private unnamed_addr constant [8 x i8] c"rpc_mgr\00", align 1
@.str.3 = private unnamed_addr constant [22 x i8] c"rpc_mgr shutting down\00", align 1

; Function Attrs: nounwind uwtable
define dso_local ptr @rpc_mgr(ptr noundef %0) #0 {
  %2 = alloca ptr, align 8
  %3 = alloca i32, align 4
  %4 = alloca i32, align 4
  %5 = alloca i32, align 4
  %6 = alloca %struct.sockaddr_storage, align 8
  %7 = alloca ptr, align 8
  store ptr %0, ptr %2, align 8
  call void @llvm.lifetime.start.p0(i64 4, ptr %3) #7
  call void @llvm.lifetime.start.p0(i64 4, ptr %4) #7
  call void @llvm.lifetime.start.p0(i64 4, ptr %5) #7
  call void @llvm.lifetime.start.p0(i64 128, ptr %6) #7
  call void @llvm.lifetime.start.p0(i64 8, ptr %7) #7
  store ptr null, ptr %7, align 8
  %8 = call i64 @pthread_self() #8
  store i64 %8, ptr @master_thread_id, align 8
  %9 = load ptr, ptr @slurmdbd_conf, align 8
  %10 = getelementptr inbounds nuw %struct.slurmdbd_conf_t, ptr %9, i32 0, i32 6
  %11 = load i16, ptr %10, align 8
  %12 = call i32 @slurm_init_msg_engine_port(i16 noundef zeroext %11)
  store i32 %12, ptr %3, align 4
  %13 = icmp eq i32 %12, -1
  br i1 %13, label %14, label %15

14:                                               ; preds = %1
  call void (ptr, ...) @fatal(ptr noundef @.str) #9
  unreachable

15:                                               ; preds = %1
  call void @slurm_persist_conn_recv_server_init()
  br label %16

16:                                               ; preds = %36, %35, %15
  %17 = load i64, ptr @shutdown_time, align 8
  %18 = icmp ne i64 %17, 0
  br i1 %18, label %22, label %19

19:                                               ; preds = %16
  %20 = call i32 @slurm_persist_conn_wait_for_thread_loc()
  store i32 %20, ptr %5, align 4
  %21 = icmp sge i32 %20, 0
  br label %22

22:                                               ; preds = %19, %16
  %23 = phi i1 [ false, %16 ], [ %21, %19 ]
  br i1 %23, label %24, label %82

24:                                               ; preds = %22
  %25 = load i32, ptr %3, align 4
  %26 = call i32 @slurm_accept_msg_conn(i32 noundef %25, ptr noundef %6)
  store i32 %26, ptr %4, align 4
  %27 = icmp eq i32 %26, -1
  br i1 %27, label %28, label %36

28:                                               ; preds = %24
  %29 = load i32, ptr %5, align 4
  call void @slurm_persist_conn_free_thread_loc(i32 noundef %29)
  %30 = call ptr @__errno_location() #8
  %31 = load i32, ptr %30, align 4
  %32 = icmp ne i32 %31, 4
  br i1 %32, label %33, label %35

33:                                               ; preds = %28
  %34 = call i32 (ptr, ...) @error(ptr noundef @.str.1)
  br label %35

35:                                               ; preds = %33, %28
  br label %16, !llvm.loop !8

36:                                               ; preds = %24
  %37 = load i32, ptr %4, align 4
  call void @fd_set_nonblocking(i32 noundef %37)
  %38 = call ptr @slurm_xcalloc(i64 noundef 1, i64 noundef 72, i1 noundef zeroext true, i1 noundef zeroext false, ptr noundef @.str.2, i32 noundef 104, ptr noundef @__func__.rpc_mgr)
  store ptr %38, ptr %7, align 8
  %39 = call ptr @slurm_xcalloc(i64 noundef 1, i64 noundef 176, i1 noundef zeroext true, i1 noundef zeroext false, ptr noundef @.str.2, i32 noundef 105, ptr noundef @__func__.rpc_mgr)
  %40 = load ptr, ptr %7, align 8
  %41 = getelementptr inbounds nuw %struct.slurmdbd_conn_t, ptr %40, i32 0, i32 0
  store ptr %39, ptr %41, align 8
  %42 = load i32, ptr %4, align 4
  %43 = load ptr, ptr %7, align 8
  %44 = getelementptr inbounds nuw %struct.slurmdbd_conn_t, ptr %43, i32 0, i32 0
  %45 = load ptr, ptr %44, align 8
  %46 = getelementptr inbounds nuw %struct.persist_conn_t, ptr %45, i32 0, i32 9
  store i32 %42, ptr %46, align 4
  %47 = load ptr, ptr %7, align 8
  %48 = getelementptr inbounds nuw %struct.slurmdbd_conn_t, ptr %47, i32 0, i32 0
  %49 = load ptr, ptr %48, align 8
  %50 = getelementptr inbounds nuw %struct.persist_conn_t, ptr %49, i32 0, i32 10
  store i16 1, ptr %50, align 8
  %51 = load ptr, ptr %7, align 8
  %52 = getelementptr inbounds nuw %struct.slurmdbd_conn_t, ptr %51, i32 0, i32 0
  %53 = load ptr, ptr %52, align 8
  %54 = getelementptr inbounds nuw %struct.persist_conn_t, ptr %53, i32 0, i32 4
  store ptr @proc_req, ptr %54, align 8
  %55 = load ptr, ptr %7, align 8
  %56 = getelementptr inbounds nuw %struct.slurmdbd_conn_t, ptr %55, i32 0, i32 0
  %57 = load ptr, ptr %56, align 8
  %58 = getelementptr inbounds nuw %struct.persist_conn_t, ptr %57, i32 0, i32 5
  store ptr @_connection_fini_callback, ptr %58, align 8
  %59 = load ptr, ptr %7, align 8
  %60 = getelementptr inbounds nuw %struct.slurmdbd_conn_t, ptr %59, i32 0, i32 0
  %61 = load ptr, ptr %60, align 8
  %62 = getelementptr inbounds nuw %struct.persist_conn_t, ptr %61, i32 0, i32 16
  store ptr @shutdown_time, ptr %62, align 8
  %63 = load ptr, ptr %7, align 8
  %64 = getelementptr inbounds nuw %struct.slurmdbd_conn_t, ptr %63, i32 0, i32 0
  %65 = load ptr, ptr %64, align 8
  %66 = getelementptr inbounds nuw %struct.persist_conn_t, ptr %65, i32 0, i32 21
  store i16 10240, ptr %66, align 8
  %67 = call ptr @slurm_xcalloc(i64 noundef 1, i64 noundef 46, i1 noundef zeroext true, i1 noundef zeroext false, ptr noundef @.str.2, i32 noundef 112, ptr noundef @__func__.rpc_mgr)
  %68 = load ptr, ptr %7, align 8
  %69 = getelementptr inbounds nuw %struct.slurmdbd_conn_t, ptr %68, i32 0, i32 0
  %70 = load ptr, ptr %69, align 8
  %71 = getelementptr inbounds nuw %struct.persist_conn_t, ptr %70, i32 0, i32 14
  store ptr %67, ptr %71, align 8
  %72 = load ptr, ptr %7, align 8
  %73 = getelementptr inbounds nuw %struct.slurmdbd_conn_t, ptr %72, i32 0, i32 0
  %74 = load ptr, ptr %73, align 8
  %75 = getelementptr inbounds nuw %struct.persist_conn_t, ptr %74, i32 0, i32 14
  %76 = load ptr, ptr %75, align 8
  call void @slurm_get_ip_str(ptr noundef %6, ptr noundef %76, i32 noundef 46)
  %77 = load ptr, ptr %7, align 8
  %78 = getelementptr inbounds nuw %struct.slurmdbd_conn_t, ptr %77, i32 0, i32 0
  %79 = load ptr, ptr %78, align 8
  %80 = load i32, ptr %5, align 4
  %81 = load ptr, ptr %7, align 8
  call void @slurm_persist_conn_recv_thread_init(ptr noundef %79, i32 noundef %80, ptr noundef %81)
  br label %16, !llvm.loop !8

82:                                               ; preds = %22
  br label %83

83:                                               ; preds = %82
  br label %84

84:                                               ; preds = %83
  %85 = call i32 @get_log_level()
  %86 = icmp sge i32 %85, 5
  br i1 %86, label %87, label %88

87:                                               ; preds = %84
  call void (i32, ptr, ...) @log_var(i32 noundef 5, ptr noundef @.str.3)
  br label %88

88:                                               ; preds = %87, %84
  br label %89

89:                                               ; preds = %88
  br label %90

90:                                               ; preds = %89
  br label %91

91:                                               ; preds = %90
  br label %92

92:                                               ; preds = %91
  %93 = load i32, ptr %3, align 4
  %94 = call i32 @close(i32 noundef %93)
  call void @llvm.lifetime.end.p0(i64 8, ptr %7) #7
  call void @llvm.lifetime.end.p0(i64 128, ptr %6) #7
  call void @llvm.lifetime.end.p0(i64 4, ptr %5) #7
  call void @llvm.lifetime.end.p0(i64 4, ptr %4) #7
  call void @llvm.lifetime.end.p0(i64 4, ptr %3) #7
  ret ptr null
}