; Function Attrs: nounwind uwtable
define dso_local noalias noundef ptr @rpc_mgr(ptr noundef readnone captures(none) %0) local_unnamed_addr #0 {
  %2 = alloca %struct.sockaddr_storage, align 8
  call void @llvm.lifetime.start.p0(i64 128, ptr nonnull %2) #7
  %3 = tail call i64 @pthread_self() #8
  store i64 %3, ptr @master_thread_id, align 8
  %4 = load ptr, ptr @slurmdbd_conf, align 8
  %5 = getelementptr inbounds nuw i8, ptr %4, i64 48
  %6 = load i16, ptr %5, align 8
  %7 = tail call i32 @slurm_init_msg_engine_port(i16 noundef zeroext %6) #7
  %8 = icmp eq i32 %7, -1
  br i1 %8, label %9, label %10

9:                                                ; preds = %1
  tail call void (ptr, ...) @fatal(ptr noundef nonnull @.str) #9
  unreachable

10:                                               ; preds = %1
  tail call void @slurm_persist_conn_recv_server_init() #7
  %11 = load i64, ptr @shutdown_time, align 8
  %.not19 = icmp eq i64 %11, 0
  br i1 %.not19, label %.lr.ph, label %.critedge

.lr.ph:                                           ; preds = %10, %.backedge
  %12 = call i32 @slurm_persist_conn_wait_for_thread_loc() #7
  %13 = icmp sgt i32 %12, -1
  br i1 %13, label %14, label %.critedge

14:                                               ; preds = %.lr.ph
  %15 = call i32 @slurm_accept_msg_conn(i32 noundef %7, ptr noundef nonnull %2) #7
  %16 = icmp eq i32 %15, -1
  br i1 %16, label %17, label %23

17:                                               ; preds = %14
  call void @slurm_persist_conn_free_thread_loc(i32 noundef %12) #7
  %18 = tail call ptr @__errno_location() #8
  %19 = load i32, ptr %18, align 4
  %.not18 = icmp eq i32 %19, 4
  br i1 %.not18, label %.backedge, label %20

20:                                               ; preds = %17
  %21 = call i32 (ptr, ...) @error(ptr noundef nonnull @.str.1) #7
  br label %.backedge

.backedge:                                        ; preds = %17, %20, %23
  %22 = load i64, ptr @shutdown_time, align 8
  %.not = icmp eq i64 %22, 0
  br i1 %.not, label %.lr.ph, label %.critedge, !llvm.loop !8

23:                                               ; preds = %14
  call void @fd_set_nonblocking(i32 noundef %15) #7
  %24 = call ptr @slurm_xcalloc(i64 noundef 1, i64 noundef 72, i1 noundef zeroext true, i1 noundef zeroext false, ptr noundef nonnull @.str.2, i32 noundef 104, ptr noundef nonnull @__func__.rpc_mgr) #7
  %25 = call ptr @slurm_xcalloc(i64 noundef 1, i64 noundef 176, i1 noundef zeroext true, i1 noundef zeroext false, ptr noundef nonnull @.str.2, i32 noundef 105, ptr noundef nonnull @__func__.rpc_mgr) #7
  store ptr %25, ptr %24, align 8
  %26 = getelementptr inbounds nuw i8, ptr %25, i64 60
  store i32 %15, ptr %26, align 4
  %27 = load ptr, ptr %24, align 8
  %28 = getelementptr inbounds nuw i8, ptr %27, i64 64
  store i16 1, ptr %28, align 8
  %29 = load ptr, ptr %24, align 8
  %30 = getelementptr inbounds nuw i8, ptr %29, i64 24
  store ptr @proc_req, ptr %30, align 8
  %31 = load ptr, ptr %24, align 8
  %32 = getelementptr inbounds nuw i8, ptr %31, i64 32
  store ptr @_connection_fini_callback, ptr %32, align 8
  %33 = load ptr, ptr %24, align 8
  %34 = getelementptr inbounds nuw i8, ptr %33, i64 96
  store ptr @shutdown_time, ptr %34, align 8
  %35 = load ptr, ptr %24, align 8
  %36 = getelementptr inbounds nuw i8, ptr %35, i64 168
  store i16 10240, ptr %36, align 8
  %37 = call ptr @slurm_xcalloc(i64 noundef 1, i64 noundef 46, i1 noundef zeroext true, i1 noundef zeroext false, ptr noundef nonnull @.str.2, i32 noundef 112, ptr noundef nonnull @__func__.rpc_mgr) #7
  %38 = load ptr, ptr %24, align 8
  %39 = getelementptr inbounds nuw i8, ptr %38, i64 80
  store ptr %37, ptr %39, align 8
  %40 = load ptr, ptr %24, align 8
  %41 = getelementptr inbounds nuw i8, ptr %40, i64 80
  %42 = load ptr, ptr %41, align 8
  call void @slurm_get_ip_str(ptr noundef nonnull %2, ptr noundef %42, i32 noundef 46) #7
  %43 = load ptr, ptr %24, align 8
  call void @slurm_persist_conn_recv_thread_init(ptr noundef %43, i32 noundef %12, ptr noundef nonnull %24) #7
  br label %.backedge

.critedge:                                        ; preds = %.lr.ph, %.backedge, %10
  %44 = call i32 @get_log_level() #7
  %45 = icmp sgt i32 %44, 4
  br i1 %45, label %46, label %47

46:                                               ; preds = %.critedge
  call void (i32, ptr, ...) @log_var(i32 noundef 5, ptr noundef nonnull @.str.3) #7
  br label %47

47:                                               ; preds = %46, %.critedge
  %48 = call i32 @close(i32 noundef %7) #7
  call void @llvm.lifetime.end.p0(i64 128, ptr nonnull %2) #7
  ret ptr null
}